target datalayout = "e-m:e-p270:32:32-p271:32:32-p272:64:64-i64:64-i128:128-f80:128-n8:16:32:64-S128"
target triple = "x86_64-pc-linux-gnu"

%struct.rb_code_location_struct = type { %struct.rb_code_position_struct, %struct.rb_code_position_struct }
%struct.rb_code_position_struct = type { i32, i32 }
%struct.lex_context = type { i16, [2 x i8] }
%struct.parser_params = type { ptr, ptr, %struct.anon.12, i64, i64, i32, i32, i32, i32, i32, ptr, ptr, ptr, ptr, i32, i32, ptr, i64, ptr, ptr, ptr, ptr, i64, i64, %struct.anon.13, ptr, i32, ptr, i32, i64, %struct.lex_context, ptr, ptr, ptr, i16, i64, i64, i64, i64, i64, i64 }
%struct.anon.12 = type { ptr, ptr, ptr, %struct.parser_string_buffer, ptr, ptr, ptr, ptr, ptr, ptr, i32, i32, i32, i32 }
%struct.parser_string_buffer = type { ptr, ptr }
%struct.anon.13 = type { ptr, i32, i32, i32, i32 }
%struct.RNode = type { i64, %struct.rb_code_location_struct, i32 }
%struct.RNode_STR = type { %struct.RNode, ptr }
%struct.RNode_DSTR = type { %struct.RNode, ptr, %union.anon.22, ptr }
%union.anon.22 = type { i64 }
%struct.RNode_EVSTR = type { %struct.RNode, ptr, %struct.rb_code_location_struct, %struct.rb_code_location_struct }

; Function Attrs: nounwind sspstrong uwtable
define internal i32 @parser_get_node_id(ptr noundef %0) #0 {
  %2 = alloca ptr, align 8
  %3 = alloca i32, align 4
  store ptr %0, ptr %2, align 8, !tbaa !6
  call void @llvm.lifetime.start.p0(i64 4, ptr %3) #25
  %4 = load ptr, ptr %2, align 8, !tbaa !6
  %5 = getelementptr inbounds nuw %struct.parser_params, ptr %4, i32 0, i32 26
  %6 = load i32, ptr %5, align 8, !tbaa !670
  store i32 %6, ptr %3, align 4, !tbaa !14
  %7 = load ptr, ptr %2, align 8, !tbaa !6
  %8 = getelementptr inbounds nuw %struct.parser_params, ptr %7, i32 0, i32 26
  %9 = load i32, ptr %8, align 8, !tbaa !670
  %10 = add nsw i32 %9, 1
  store i32 %10, ptr %8, align 8, !tbaa !670
  %11 = load i32, ptr %3, align 4, !tbaa !14
  call void @llvm.lifetime.end.p0(i64 4, ptr %3) #25
  ret i32 %11
}

; Function Attrs: nounwind sspstrong uwtable
define internal ptr @nd_set_loc(ptr noundef %0, ptr noundef %1) #0 {
  %3 = alloca ptr, align 8
  %4 = alloca ptr, align 8
  store ptr %0, ptr %3, align 8, !tbaa !33
  store ptr %1, ptr %4, align 8, !tbaa !22
  %5 = load ptr, ptr %3, align 8, !tbaa !33
  %6 = getelementptr inbounds nuw %struct.RNode, ptr %5, i32 0, i32 1
  %7 = load ptr, ptr %4, align 8, !tbaa !22
  call void @llvm.memcpy.p0.p0.i64(ptr align 8 %6, ptr align 4 %7, i64 16, i1 false), !tbaa.struct !13
  %8 = load ptr, ptr %3, align 8, !tbaa !33
  %9 = load ptr, ptr %4, align 8, !tbaa !22
  %10 = getelementptr inbounds nuw %struct.rb_code_location_struct, ptr %9, i32 0, i32 0
  %11 = getelementptr inbounds nuw %struct.rb_code_position_struct, ptr %10, i32 0, i32 0
  %12 = load i32, ptr %11, align 4, !tbaa !293
  %13 = sext i32 %12 to i64
  call void @nd_set_line(ptr noundef %8, i64 noundef %13)
  %14 = load ptr, ptr %3, align 8, !tbaa !33
  ret ptr %14
}

; Function Attrs: inlinehint nounwind sspstrong uwtable
define internal void @nd_set_line(ptr noundef %0, i64 noundef %1) #6 {
  %3 = alloca ptr, align 8
  %4 = alloca i64, align 8
  store ptr %0, ptr %3, align 8, !tbaa !33
  store i64 %1, ptr %4, align 8, !tbaa !16
  %5 = load ptr, ptr %3, align 8, !tbaa !33
  %6 = getelementptr inbounds nuw %struct.RNode, ptr %5, i32 0, i32 0
  %7 = load i64, ptr %6, align 8, !tbaa !175
  %8 = and i64 %7, 32767
  store i64 %8, ptr %6, align 8, !tbaa !175
  %9 = load i64, ptr %4, align 8, !tbaa !16
  %10 = and i64 %9, 562949953421311
  %11 = shl i64 %10, 15
  %12 = load ptr, ptr %3, align 8, !tbaa !33
  %13 = getelementptr inbounds nuw %struct.RNode, ptr %12, i32 0, i32 0
  %14 = load i64, ptr %13, align 8, !tbaa !175
  %15 = or i64 %14, %11
  store i64 %15, ptr %13, align 8, !tbaa !175
  ret void
}

; Function Attrs: inlinehint nounwind sspstrong uwtable
define internal i32 @nd_line(ptr noundef %0) #6 {
  %2 = alloca i32, align 4
  %3 = alloca ptr, align 8
  %4 = alloca i64, align 8
  store ptr %0, ptr %3, align 8, !tbaa !33
  %5 = load ptr, ptr %3, align 8, !tbaa !33
  %6 = icmp ne ptr %5, null
  br i1 %6, label %8, label %7

7:                                                ; preds = %1
  store i32 -1, ptr %2, align 4
  br label %15

8:                                                ; preds = %1
  call void @llvm.lifetime.start.p0(i64 8, ptr %4) #25
  %9 = load ptr, ptr %3, align 8, !tbaa !33
  %10 = getelementptr inbounds nuw %struct.RNode, ptr %9, i32 0, i32 0
  %11 = load i64, ptr %10, align 8, !tbaa !175
  store i64 %11, ptr %4, align 8, !tbaa !16
  %12 = load i64, ptr %4, align 8, !tbaa !16
  %13 = ashr i64 %12, 15
  %14 = trunc i64 %13 to i32
  store i32 %14, ptr %2, align 4
  call void @llvm.lifetime.end.p0(i64 8, ptr %4) #25
  br label %15

15:                                               ; preds = %8, %7
  %16 = load i32, ptr %2, align 4
  ret i32 %16
}

; Function Attrs: nounwind sspstrong uwtable
define internal ptr @node_newnode(ptr noundef %0, i32 noundef %1, i64 noundef %2, i64 noundef %3, ptr noundef %4) #0 {
  %6 = alloca ptr, align 8
  %7 = alloca i32, align 4
  %8 = alloca i64, align 8
  %9 = alloca i64, align 8
  %10 = alloca ptr, align 8
  %11 = alloca ptr, align 8
  store ptr %0, ptr %6, align 8, !tbaa !6
  store i32 %1, ptr %7, align 4, !tbaa !14
  store i64 %2, ptr %8, align 8, !tbaa !16
  store i64 %3, ptr %9, align 8, !tbaa !16
  store ptr %4, ptr %10, align 8, !tbaa !22
  call void @llvm.lifetime.start.p0(i64 8, ptr %11) #25
  %12 = load ptr, ptr %6, align 8, !tbaa !6
  %13 = load i32, ptr %7, align 4, !tbaa !14
  %14 = load i64, ptr %8, align 8, !tbaa !16
  %15 = load i64, ptr %9, align 8, !tbaa !16
  %16 = call ptr @node_new_internal(ptr noundef %12, i32 noundef %13, i64 noundef %14, i64 noundef %15)
  store ptr %16, ptr %11, align 8, !tbaa !33
  %17 = load ptr, ptr %11, align 8, !tbaa !33
  %18 = load ptr, ptr %10, align 8, !tbaa !22
  %19 = call ptr @nd_set_loc(ptr noundef %17, ptr noundef %18)
  %20 = load ptr, ptr %6, align 8, !tbaa !6
  %21 = call i32 @parser_get_node_id(ptr noundef %20)
  %22 = load ptr, ptr %11, align 8, !tbaa !33
  %23 = getelementptr inbounds nuw %struct.RNode, ptr %22, i32 0, i32 2
  store i32 %21, ptr %23, align 8, !tbaa !798
  %24 = load ptr, ptr %11, align 8, !tbaa !33
  call void @llvm.lifetime.end.p0(i64 8, ptr %11) #25
  ret ptr %24
}

; Function Attrs: nounwind sspstrong uwtable
define internal void @nd_copy_flag(ptr noundef %0, ptr noundef %1) #0 {
  %3 = alloca ptr, align 8
  %4 = alloca ptr, align 8
  store ptr %0, ptr %3, align 8, !tbaa !33
  store ptr %1, ptr %4, align 8, !tbaa !33
  %5 = load ptr, ptr %4, align 8, !tbaa !33
  %6 = getelementptr inbounds nuw %struct.RNode, ptr %5, i32 0, i32 0
  %7 = load i64, ptr %6, align 8, !tbaa !175
  %8 = and i64 %7, 128
  %9 = icmp ne i64 %8, 0
  br i1 %9, label %10, label %15

10:                                               ; preds = %2
  %11 = load ptr, ptr %3, align 8, !tbaa !33
  %12 = getelementptr inbounds nuw %struct.RNode, ptr %11, i32 0, i32 0
  %13 = load i64, ptr %12, align 8, !tbaa !175
  %14 = or i64 %13, 128
  store i64 %14, ptr %12, align 8, !tbaa !175
  br label %15

15:                                               ; preds = %10, %2
  %16 = load ptr, ptr %3, align 8, !tbaa !33
  %17 = load ptr, ptr %4, align 8, !tbaa !33
  %18 = call i32 @nd_line(ptr noundef %17)
  %19 = sext i32 %18 to i64
  call void @nd_set_line(ptr noundef %16, i64 noundef %19)
  %20 = load ptr, ptr %3, align 8, !tbaa !33
  %21 = getelementptr inbounds nuw %struct.RNode, ptr %20, i32 0, i32 1
  %22 = load ptr, ptr %4, align 8, !tbaa !33
  %23 = getelementptr inbounds nuw %struct.RNode, ptr %22, i32 0, i32 1
  call void @llvm.memcpy.p0.p0.i64(ptr align 8 %21, ptr align 8 %23, i64 16, i1 false), !tbaa.struct !13
  %24 = load ptr, ptr %4, align 8, !tbaa !33
  %25 = getelementptr inbounds nuw %struct.RNode, ptr %24, i32 0, i32 2
  %26 = load i32, ptr %25, align 8, !tbaa !798
  %27 = load ptr, ptr %3, align 8, !tbaa !33
  %28 = getelementptr inbounds nuw %struct.RNode, ptr %27, i32 0, i32 2
  store i32 %26, ptr %28, align 8, !tbaa !798
  ret void
}

; Function Attrs: nounwind sspstrong uwtable
define internal ptr @node_new_internal(ptr noundef %0, i32 noundef %1, i64 noundef %2, i64 noundef %3) #0 {
  %5 = alloca ptr, align 8
  %6 = alloca i32, align 4
  %7 = alloca i64, align 8
  %8 = alloca i64, align 8
  %9 = alloca ptr, align 8
  store ptr %0, ptr %5, align 8, !tbaa !6
  store i32 %1, ptr %6, align 4, !tbaa !14
  store i64 %2, ptr %7, align 8, !tbaa !16
  store i64 %3, ptr %8, align 8, !tbaa !16
  call void @llvm.lifetime.start.p0(i64 8, ptr %9) #25
  %10 = load ptr, ptr %5, align 8, !tbaa !6
  %11 = getelementptr inbounds nuw %struct.parser_params, ptr %10, i32 0, i32 25
  %12 = load ptr, ptr %11, align 8, !tbaa !172
  %13 = load i32, ptr %6, align 4, !tbaa !14
  %14 = load i64, ptr %7, align 8, !tbaa !16
  %15 = load i64, ptr %8, align 8, !tbaa !16
  %16 = call ptr @rb_ast_newnode(ptr noundef %12, i32 noundef %13, i64 noundef %14, i64 noundef %15)
  store ptr %16, ptr %9, align 8, !tbaa !33
  %17 = load ptr, ptr %9, align 8, !tbaa !33
  %18 = load i32, ptr %6, align 4, !tbaa !14
  call void @rb_node_init(ptr noundef %17, i32 noundef %18)
  %19 = load ptr, ptr %9, align 8, !tbaa !33
  call void @llvm.lifetime.end.p0(i64 8, ptr %9) #25
  ret ptr %19
}

; Function Attrs: nounwind sspstrong uwtable
define internal ptr @rb_node_evstr_new(ptr noundef %0, ptr noundef %1, ptr noundef %2, ptr noundef %3, ptr noundef %4) #0 {
  %6 = alloca ptr, align 8
  %7 = alloca ptr, align 8
  %8 = alloca ptr, align 8
  %9 = alloca ptr, align 8
  %10 = alloca ptr, align 8
  %11 = alloca ptr, align 8
  store ptr %0, ptr %6, align 8, !tbaa !6
  store ptr %1, ptr %7, align 8, !tbaa !33
  store ptr %2, ptr %8, align 8, !tbaa !22
  store ptr %3, ptr %9, align 8, !tbaa !22
  store ptr %4, ptr %10, align 8, !tbaa !22
  call void @llvm.lifetime.start.p0(i64 8, ptr %11) #25
  %12 = load ptr, ptr %6, align 8, !tbaa !6
  %13 = load ptr, ptr %8, align 8, !tbaa !22
  %14 = call ptr @node_newnode(ptr noundef %12, i32 noundef 67, i64 noundef 72, i64 noundef 8, ptr noundef %13)
  store ptr %14, ptr %11, align 8, !tbaa !630
  %15 = load ptr, ptr %7, align 8, !tbaa !33
  %16 = load ptr, ptr %11, align 8, !tbaa !630
  %17 = getelementptr inbounds nuw %struct.RNode_EVSTR, ptr %16, i32 0, i32 1
  store ptr %15, ptr %17, align 8, !tbaa !632
  %18 = load ptr, ptr %11, align 8, !tbaa !630
  %19 = getelementptr inbounds nuw %struct.RNode_EVSTR, ptr %18, i32 0, i32 2
  %20 = load ptr, ptr %9, align 8, !tbaa !22
  call void @llvm.memcpy.p0.p0.i64(ptr align 8 %19, ptr align 4 %20, i64 16, i1 false), !tbaa.struct !13
  %21 = load ptr, ptr %11, align 8, !tbaa !630
  %22 = getelementptr inbounds nuw %struct.RNode_EVSTR, ptr %21, i32 0, i32 3
  %23 = load ptr, ptr %10, align 8, !tbaa !22
  call void @llvm.memcpy.p0.p0.i64(ptr align 8 %22, ptr align 4 %23, i64 16, i1 false), !tbaa.struct !13
  %24 = load ptr, ptr %11, align 8, !tbaa !630
  call void @llvm.lifetime.end.p0(i64 8, ptr %11) #25
  ret ptr %24
}

; Function Attrs: nounwind sspstrong uwtable
define internal ptr @str2dstr(ptr noundef %0, ptr noundef %1) #0 {
  %3 = alloca ptr, align 8
  %4 = alloca ptr, align 8
  %5 = alloca ptr, align 8
  store ptr %0, ptr %3, align 8, !tbaa !6
  store ptr %1, ptr %4, align 8, !tbaa !33
  call void @llvm.lifetime.start.p0(i64 8, ptr %5) #25
  %6 = load ptr, ptr %3, align 8, !tbaa !6
  %7 = call ptr @node_new_internal(ptr noundef %6, i32 noundef 64, i64 noundef 56, i64 noundef 8)
  store ptr %7, ptr %5, align 8, !tbaa !33
  %8 = load ptr, ptr %5, align 8, !tbaa !33
  %9 = load ptr, ptr %4, align 8, !tbaa !33
  call void @nd_copy_flag(ptr noundef %8, ptr noundef %9)
  %10 = load ptr, ptr %4, align 8, !tbaa !33
  %11 = getelementptr inbounds nuw %struct.RNode_STR, ptr %10, i32 0, i32 1
  %12 = load ptr, ptr %11, align 8, !tbaa !617
  %13 = load ptr, ptr %5, align 8, !tbaa !33
  %14 = getelementptr inbounds nuw %struct.RNode_DSTR, ptr %13, i32 0, i32 1
  store ptr %12, ptr %14, align 8, !tbaa !623
  %15 = load ptr, ptr %5, align 8, !tbaa !33
  %16 = getelementptr inbounds nuw %struct.RNode_DSTR, ptr %15, i32 0, i32 2
  store i64 0, ptr %16, align 8, !tbaa !12
  %17 = load ptr, ptr %5, align 8, !tbaa !33
  %18 = getelementptr inbounds nuw %struct.RNode_DSTR, ptr %17, i32 0, i32 3
  store ptr null, ptr %18, align 8, !tbaa !625
  %19 = load ptr, ptr %4, align 8, !tbaa !33
  %20 = getelementptr inbounds nuw %struct.RNode_STR, ptr %19, i32 0, i32 1
  store ptr null, ptr %20, align 8, !tbaa !617
  %21 = load ptr, ptr %5, align 8, !tbaa !33
  call void @llvm.lifetime.end.p0(i64 8, ptr %5) #25
  ret ptr %21
}

; Function Attrs: nounwind sspstrong uwtable
define internal ptr @new_evstr(ptr noundef %0, ptr noundef %1, ptr noundef %2, ptr noundef %3, ptr noundef %4) #0 {
  %6 = alloca ptr, align 8
  %7 = alloca ptr, align 8
  %8 = alloca ptr, align 8
  %9 = alloca ptr, align 8
  %10 = alloca ptr, align 8
  %11 = alloca ptr, align 8
  %12 = alloca ptr, align 8
  %13 = alloca i32, align 4
  store ptr %0, ptr %7, align 8, !tbaa !6
  store ptr %1, ptr %8, align 8, !tbaa !33
  store ptr %2, ptr %9, align 8, !tbaa !22
  store ptr %3, ptr %10, align 8, !tbaa !22
  store ptr %4, ptr %11, align 8, !tbaa !22
  call void @llvm.lifetime.start.p0(i64 8, ptr %12) #25
  %14 = load ptr, ptr %8, align 8, !tbaa !33
  store ptr %14, ptr %12, align 8, !tbaa !33
  %15 = load ptr, ptr %8, align 8, !tbaa !33
  %16 = icmp ne ptr %15, null
  br i1 %16, label %17, label %31

17:                                               ; preds = %5
  %18 = load ptr, ptr %8, align 8, !tbaa !33
  %19 = getelementptr inbounds nuw %struct.RNode, ptr %18, i32 0, i32 0
  %20 = load i64, ptr %19, align 8, !tbaa !175
  %21 = and i64 %20, 32512
  %22 = lshr i64 %21, 8
  %23 = trunc i64 %22 to i32
  switch i32 %23, label %30 [
    i32 63, label %24
    i32 64, label %30
    i32 67, label %28
  ]

24:                                               ; preds = %17
  %25 = load ptr, ptr %7, align 8, !tbaa !6
  %26 = load ptr, ptr %8, align 8, !tbaa !33
  %27 = call ptr @str2dstr(ptr noundef %25, ptr noundef %26)
  store ptr %27, ptr %6, align 8
  store i32 1, ptr %13, align 4
  br label %38

28:                                               ; preds = %17
  %29 = load ptr, ptr %8, align 8, !tbaa !33
  store ptr %29, ptr %6, align 8
  store i32 1, ptr %13, align 4
  br label %38

30:                                               ; preds = %17, %17
  br label %31

31:                                               ; preds = %30, %5
  %32 = load ptr, ptr %7, align 8, !tbaa !6
  %33 = load ptr, ptr %12, align 8, !tbaa !33
  %34 = load ptr, ptr %9, align 8, !tbaa !22
  %35 = load ptr, ptr %10, align 8, !tbaa !22
  %36 = load ptr, ptr %11, align 8, !tbaa !22
  %37 = call ptr @rb_node_evstr_new(ptr noundef %32, ptr noundef %33, ptr noundef %34, ptr noundef %35, ptr noundef %36)
  store ptr %37, ptr %6, align 8
  store i32 1, ptr %13, align 4
  br label %38

38:                                               ; preds = %31, %28, %24
  call void @llvm.lifetime.end.p0(i64 8, ptr %12) #25
  %39 = load ptr, ptr %6, align 8
  ret ptr %39
}