; Function Attrs: nounwind sspstrong uwtable
define internal fastcc noundef ptr @new_evstr(ptr noundef captures(none) %0, ptr noundef %1, ptr noundef nonnull readonly captures(none) %2, ptr noundef nonnull readonly captures(none) %3, ptr noundef nonnull readonly captures(none) %4) unnamed_addr #0 {
  %.not = icmp eq ptr %1, null
  br i1 %.not, label %.split, label %22

.split:                                           ; preds = %5
  %6 = getelementptr i8, ptr %0, i64 288
  %.val.i.i = load ptr, ptr %6, align 8, !tbaa !120
  %7 = tail call ptr @rb_ast_newnode(ptr noundef %.val.i.i, i32 noundef range(i32 0, 115) 67, i64 noundef range(i64 32, 129) 72, i64 noundef 8) #31
  tail call void @rb_node_init(ptr noundef %7, i32 noundef range(i32 0, 115) 67) #31
  %8 = getelementptr inbounds nuw i8, ptr %7, i64 8
  tail call void @llvm.memcpy.p0.p0.i64(ptr noundef nonnull align 8 dereferenceable(16) %8, ptr noundef nonnull readonly align 4 dereferenceable(16) %2, i64 16, i1 false), !tbaa.struct !11
  %9 = load i32, ptr %2, align 4, !tbaa !51
  %10 = sext i32 %9 to i64
  %11 = load i64, ptr %7, align 8, !tbaa !61
  %12 = and i64 %11, 32767
  %13 = shl nsw i64 %10, 15
  %14 = or disjoint i64 %12, %13
  store i64 %14, ptr %7, align 8, !tbaa !61
  %15 = getelementptr inbounds nuw i8, ptr %0, i64 296
  %16 = load i32, ptr %15, align 8, !tbaa !192
  %17 = add nsw i32 %16, 1
  store i32 %17, ptr %15, align 8, !tbaa !192
  %18 = getelementptr inbounds nuw i8, ptr %7, i64 24
  store i32 %16, ptr %18, align 8, !tbaa !193
  %19 = getelementptr inbounds nuw i8, ptr %7, i64 32
  store ptr null, ptr %19, align 8, !tbaa !453
  %20 = getelementptr inbounds nuw i8, ptr %7, i64 40
  tail call void @llvm.memcpy.p0.p0.i64(ptr noundef nonnull align 8 dereferenceable(16) %20, ptr noundef nonnull readonly align 4 dereferenceable(16) %3, i64 16, i1 false), !tbaa.struct !11
  %21 = getelementptr inbounds nuw i8, ptr %7, i64 56
  tail call void @llvm.memcpy.p0.p0.i64(ptr noundef nonnull align 8 dereferenceable(16) %21, ptr noundef nonnull readonly align 4 dereferenceable(16) %4, i64 16, i1 false), !tbaa.struct !11
  br label %66

22:                                               ; preds = %5
  %23 = load i64, ptr %1, align 8, !tbaa !61
  %24 = trunc i64 %23 to i32
  %25 = lshr i32 %24, 8
  %26 = and i32 %25, 127
  switch i32 %26, label %.split12 [
    i32 63, label %43
    i32 67, label %66
  ]

.split12:                                         ; preds = %22
  %27 = getelementptr i8, ptr %0, i64 288
  %.val.i.i14 = load ptr, ptr %27, align 8, !tbaa !120
  %28 = tail call ptr @rb_ast_newnode(ptr noundef %.val.i.i14, i32 noundef range(i32 0, 115) 67, i64 noundef range(i64 32, 129) 72, i64 noundef 8) #31
  tail call void @rb_node_init(ptr noundef %28, i32 noundef range(i32 0, 115) 67) #31
  %29 = getelementptr inbounds nuw i8, ptr %28, i64 8
  tail call void @llvm.memcpy.p0.p0.i64(ptr noundef nonnull align 8 dereferenceable(16) %29, ptr noundef nonnull readonly align 4 dereferenceable(16) %2, i64 16, i1 false), !tbaa.struct !11
  %30 = load i32, ptr %2, align 4, !tbaa !51
  %31 = sext i32 %30 to i64
  %32 = load i64, ptr %28, align 8, !tbaa !61
  %33 = and i64 %32, 32767
  %34 = shl nsw i64 %31, 15
  %35 = or disjoint i64 %33, %34
  store i64 %35, ptr %28, align 8, !tbaa !61
  %36 = getelementptr inbounds nuw i8, ptr %0, i64 296
  %37 = load i32, ptr %36, align 8, !tbaa !192
  %38 = add nsw i32 %37, 1
  store i32 %38, ptr %36, align 8, !tbaa !192
  %39 = getelementptr inbounds nuw i8, ptr %28, i64 24
  store i32 %37, ptr %39, align 8, !tbaa !193
  %40 = getelementptr inbounds nuw i8, ptr %28, i64 32
  store ptr %1, ptr %40, align 8, !tbaa !453
  %41 = getelementptr inbounds nuw i8, ptr %28, i64 40
  tail call void @llvm.memcpy.p0.p0.i64(ptr noundef nonnull align 8 dereferenceable(16) %41, ptr noundef nonnull readonly align 4 dereferenceable(16) %3, i64 16, i1 false), !tbaa.struct !11
  %42 = getelementptr inbounds nuw i8, ptr %28, i64 56
  tail call void @llvm.memcpy.p0.p0.i64(ptr noundef nonnull align 8 dereferenceable(16) %42, ptr noundef nonnull readonly align 4 dereferenceable(16) %4, i64 16, i1 false), !tbaa.struct !11
  br label %66

43:                                               ; preds = %22
  %44 = getelementptr i8, ptr %0, i64 288
  %.val = load ptr, ptr %44, align 8, !tbaa !120
  %45 = tail call ptr @rb_ast_newnode(ptr noundef %.val, i32 noundef 64, i64 noundef 56, i64 noundef 8) #31
  tail call void @rb_node_init(ptr noundef %45, i32 noundef 64) #31
  %46 = load i64, ptr %1, align 8, !tbaa !61
  %47 = and i64 %46, 128
  %.not.i.i = icmp eq i64 %47, 0
  %.pre8.i.i = load i64, ptr %45, align 8, !tbaa !61
  br i1 %.not.i.i, label %str2dstr.exit, label %48

48:                                               ; preds = %43
  %49 = or i64 %.pre8.i.i, 128
  store i64 %49, ptr %45, align 8, !tbaa !61
  %.pre.i.i = load i64, ptr %1, align 8, !tbaa !61
  br label %str2dstr.exit

str2dstr.exit:                                    ; preds = %43, %48
  %50 = phi i64 [ %49, %48 ], [ %.pre8.i.i, %43 ]
  %51 = phi i64 [ %.pre.i.i, %48 ], [ %46, %43 ]
  %52 = shl i64 %51, 17
  %53 = and i64 %50, 32767
  %54 = ashr exact i64 %52, 17
  %55 = and i64 %54, -32768
  %56 = or disjoint i64 %55, %53
  store i64 %56, ptr %45, align 8, !tbaa !61
  %57 = getelementptr inbounds nuw i8, ptr %45, i64 8
  %58 = getelementptr inbounds nuw i8, ptr %1, i64 8
  tail call void @llvm.memcpy.p0.p0.i64(ptr noundef nonnull align 8 dereferenceable(16) %57, ptr noundef nonnull readonly align 8 dereferenceable(16) %58, i64 16, i1 false), !tbaa.struct !11
  %59 = getelementptr inbounds nuw i8, ptr %1, i64 24
  %60 = load i32, ptr %59, align 8, !tbaa !193
  %61 = getelementptr inbounds nuw i8, ptr %45, i64 24
  store i32 %60, ptr %61, align 8, !tbaa !193
  %62 = getelementptr inbounds nuw i8, ptr %1, i64 32
  %63 = load ptr, ptr %62, align 8, !tbaa !424
  %64 = getelementptr inbounds nuw i8, ptr %45, i64 32
  store ptr %63, ptr %64, align 8, !tbaa !426
  %65 = getelementptr inbounds nuw i8, ptr %45, i64 40
  tail call void @llvm.memset.p0.i64(ptr noundef nonnull align 8 dereferenceable(16) %65, i8 0, i64 16, i1 false)
  store ptr null, ptr %62, align 8, !tbaa !424
  br label %66

66:                                               ; preds = %.split, %.split12, %22, %str2dstr.exit
  %.0 = phi ptr [ %45, %str2dstr.exit ], [ %1, %22 ], [ %7, %.split ], [ %28, %.split12 ]
  ret ptr %.0
}